target datalayout = "e-m:e-p270:32:32-p271:32:32-p272:64:64-i64:64-i128:128-f80:128-n8:16:32:64-S128"
target triple = "x86_64-pc-linux-gnu"

@hf_mbim_info_buffer = internal global i32 0, align 4
@hf_mbim_ms_atr_info_atr_offset = internal global i32 0, align 4
@hf_mbim_ms_atr_info_atr_size = internal global i32 0, align 4
@iso7816_atr_handle = internal global ptr null, align 8

; Function Attrs: nounwind uwtable
define internal void @mbim_dissect_ms_atr_info(ptr noundef %0, ptr noundef %1, ptr noundef %2, i32 noundef %3) #0 {
  %5 = alloca ptr, align 8
  %6 = alloca ptr, align 8
  %7 = alloca ptr, align 8
  %8 = alloca i32, align 4
  %9 = alloca i32, align 4
  %10 = alloca i32, align 4
  %11 = alloca i32, align 4
  %12 = alloca ptr, align 8
  store ptr %0, ptr %5, align 8
  store ptr %1, ptr %6, align 8
  store ptr %2, ptr %7, align 8
  store i32 %3, ptr %8, align 4
  %13 = load i32, ptr %8, align 4
  store i32 %13, ptr %9, align 4
  %14 = load ptr, ptr %7, align 8
  %15 = load i32, ptr @hf_mbim_ms_atr_info_atr_size, align 4
  %16 = load ptr, ptr %5, align 8
  %17 = load i32, ptr %8, align 4
  %18 = call ptr @proto_tree_add_item_ret_uint(ptr noundef %14, i32 noundef %15, ptr noundef %16, i32 noundef %17, i32 noundef 4, i32 noundef -2147483648, ptr noundef %11)
  %19 = load i32, ptr %8, align 4
  %20 = add i32 %19, 4
  store i32 %20, ptr %8, align 4
  %21 = load ptr, ptr %7, align 8
  %22 = load i32, ptr @hf_mbim_ms_atr_info_atr_offset, align 4
  %23 = load ptr, ptr %5, align 8
  %24 = load i32, ptr %8, align 4
  %25 = call ptr @proto_tree_add_item_ret_uint(ptr noundef %21, i32 noundef %22, ptr noundef %23, i32 noundef %24, i32 noundef 4, i32 noundef -2147483648, ptr noundef %10)
  %26 = load i32, ptr %10, align 4
  %27 = icmp ne i32 %26, 0
  br i1 %27, label %28, label %56

28:                                               ; preds = %4
  %29 = load i32, ptr %11, align 4
  %30 = icmp ne i32 %29, 0
  br i1 %30, label %31, label %56

31:                                               ; preds = %28
  %32 = load ptr, ptr @iso7816_atr_handle, align 8
  %33 = icmp ne ptr %32, null
  br i1 %33, label %34, label %46

34:                                               ; preds = %31
  %35 = load ptr, ptr %5, align 8
  %36 = load i32, ptr %9, align 4
  %37 = load i32, ptr %10, align 4
  %38 = add i32 %36, %37
  %39 = load i32, ptr %11, align 4
  %40 = call ptr @tvb_new_subset_length(ptr noundef %35, i32 noundef %38, i32 noundef %39)
  store ptr %40, ptr %12, align 8
  %41 = load ptr, ptr @iso7816_atr_handle, align 8
  %42 = load ptr, ptr %12, align 8
  %43 = load ptr, ptr %6, align 8
  %44 = load ptr, ptr %7, align 8
  %45 = call i32 @call_dissector(ptr noundef %41, ptr noundef %42, ptr noundef %43, ptr noundef %44)
  br label %55

46:                                               ; preds = %31
  %47 = load ptr, ptr %7, align 8
  %48 = load i32, ptr @hf_mbim_info_buffer, align 4
  %49 = load ptr, ptr %5, align 8
  %50 = load i32, ptr %9, align 4
  %51 = load i32, ptr %10, align 4
  %52 = add i32 %50, %51
  %53 = load i32, ptr %11, align 4
  %54 = call ptr @proto_tree_add_item(ptr noundef %47, i32 noundef %48, ptr noundef %49, i32 noundef %52, i32 noundef %53, i32 noundef 0)
  br label %55

55:                                               ; preds = %46, %34
  br label %56

56:                                               ; preds = %55, %28, %4
  ret void
}