; Function Attrs: nounwind uwtable
define internal fastcc void @mbim_dissect_ms_atr_info(ptr noundef %0, ptr noundef %1, ptr noundef %2, i32 noundef %3) unnamed_addr #0 {
  %5 = alloca i32, align 4
  %6 = alloca i32, align 4
  %7 = load i32, ptr @hf_mbim_ms_atr_info_atr_size, align 4
  %8 = call ptr @proto_tree_add_item_ret_uint(ptr noundef %2, i32 noundef %7, ptr noundef %0, i32 noundef %3, i32 noundef 4, i32 noundef -2147483648, ptr noundef nonnull %6) #10
  %9 = add i32 %3, 4
  %10 = load i32, ptr @hf_mbim_ms_atr_info_atr_offset, align 4
  %11 = call ptr @proto_tree_add_item_ret_uint(ptr noundef %2, i32 noundef %10, ptr noundef %0, i32 noundef %9, i32 noundef 4, i32 noundef -2147483648, ptr noundef nonnull %5) #10
  %12 = load i32, ptr %5, align 4
  %13 = icmp ne i32 %12, 0
  %14 = load i32, ptr %6, align 4
  %15 = icmp ne i32 %14, 0
  %or.cond = select i1 %13, i1 %15, i1 false
  br i1 %or.cond, label %16, label %27

16:                                               ; preds = %4
  %17 = load ptr, ptr @iso7816_atr_handle, align 8
  %.not = icmp eq ptr %17, null
  br i1 %.not, label %23, label %18

18:                                               ; preds = %16
  %19 = add i32 %12, %3
  %20 = call ptr @tvb_new_subset_length(ptr noundef %0, i32 noundef %19, i32 noundef %14) #10
  %21 = load ptr, ptr @iso7816_atr_handle, align 8
  %22 = call i32 @call_dissector(ptr noundef %21, ptr noundef %20, ptr noundef %1, ptr noundef %2) #10
  br label %27

23:                                               ; preds = %16
  %24 = load i32, ptr @hf_mbim_info_buffer, align 4
  %25 = add i32 %12, %3
  %26 = call ptr @proto_tree_add_item(ptr noundef %2, i32 noundef %24, ptr noundef %0, i32 noundef %25, i32 noundef %14, i32 noundef 0) #10
  br label %27

27:                                               ; preds = %18, %23, %4
  ret void
}